target datalayout = "e-m:e-p270:32:32-p271:32:32-p272:64:64-i64:64-i128:128-f80:128-n8:16:32:64-S128"
target triple = "x86_64-pc-linux-gnu"

%struct.nghttp2_session = type { %struct.nghttp2_map, %struct.nghttp2_outbound_queue, %struct.nghttp2_outbound_queue, %struct.nghttp2_outbound_queue, [8 x %struct.anon], %struct.nghttp2_active_outbound_item, %struct.nghttp2_inbound_frame, %struct.nghttp2_hd_deflater, %struct.nghttp2_hd_inflater, %struct.nghttp2_session_callbacks, %struct.nghttp2_mem, ptr, ptr, %struct.nghttp2_ratelim, i64, i64, i64, i64, i64, i64, i64, i64, i64, i64, i64, i64, i64, i64, i32, i32, i32, i32, i32, i32, i32, i32, i32, i32, i32, i32, i8, %struct.nghttp2_settings_storage, %struct.nghttp2_settings_storage, i32, i32, i32, i8, i8, i8, i8, i8, i8, [32 x i8] }
%struct.nghttp2_map = type { ptr, ptr, i64, i64 }
%struct.nghttp2_outbound_queue = type { ptr, ptr, i64 }
%struct.anon = type { %struct.nghttp2_pq }
%struct.nghttp2_pq = type { ptr, ptr, i64, i64, ptr }
%struct.nghttp2_active_outbound_item = type { ptr, %struct.nghttp2_bufs, i32 }
%struct.nghttp2_bufs = type { ptr, ptr, ptr, i64, i64, i64, i64, i64 }
%struct.nghttp2_inbound_frame = type { %union.nghttp2_frame, %union.nghttp2_ext_frame_payload, ptr, %struct.nghttp2_buf, %struct.nghttp2_buf, ptr, i64, i64, i64, i64, i32, [32 x i8] }
%union.nghttp2_frame = type { %struct.nghttp2_headers }
%struct.nghttp2_headers = type { %struct.nghttp2_frame_hd, i64, %struct.nghttp2_priority_spec, ptr, i64, i32 }
%struct.nghttp2_frame_hd = type { i64, i32, i8, i8, i8 }
%struct.nghttp2_priority_spec = type { i32, i32, i8 }
%union.nghttp2_ext_frame_payload = type { %struct.nghttp2_ext_altsvc }
%struct.nghttp2_ext_altsvc = type { ptr, i64, ptr, i64 }
%struct.nghttp2_buf = type { ptr, ptr, ptr, ptr, ptr }
%struct.nghttp2_hd_deflater = type { %struct.nghttp2_hd_context, %struct.nghttp2_hd_map, i64, i64, i8 }
%struct.nghttp2_hd_context = type { %struct.nghttp2_hd_ringbuf, ptr, i64, i64, i32, i8 }
%struct.nghttp2_hd_ringbuf = type { ptr, i64, i64, i64 }
%struct.nghttp2_hd_map = type { [128 x ptr] }
%struct.nghttp2_hd_inflater = type { %struct.nghttp2_hd_context, %struct.nghttp2_hd_huff_decode_context, %struct.nghttp2_buf, %struct.nghttp2_buf, ptr, ptr, ptr, ptr, i64, i64, i64, i64, i64, i32, i32, i8, i8, i8 }
%struct.nghttp2_hd_huff_decode_context = type { i16 }
%struct.nghttp2_session_callbacks = type { ptr, ptr, ptr, ptr, ptr, ptr, ptr, ptr, ptr, ptr, ptr, ptr, ptr, ptr, ptr, ptr, ptr, ptr, ptr, ptr, ptr, ptr, ptr, ptr, ptr, ptr, ptr, ptr }
%struct.nghttp2_mem = type { ptr, ptr, ptr, ptr, ptr }
%struct.nghttp2_ratelim = type { i64, i64, i64, i64 }
%struct.nghttp2_settings_storage = type { i32, i32, i32, i32, i32, i32, i32, i32 }
%struct.nghttp2_outbound_item = type { %union.nghttp2_frame, %union.nghttp2_ext_frame_payload, %union.nghttp2_aux_data, i64, ptr, i8 }
%union.nghttp2_aux_data = type { %struct.nghttp2_headers_aux_data }
%struct.nghttp2_headers_aux_data = type { %struct.nghttp2_data_provider_wrap, ptr, i32, i8 }
%struct.nghttp2_data_provider_wrap = type { i32, %union.anon }
%union.anon = type { %struct.anon.0 }
%struct.anon.0 = type { %union.nghttp2_data_source, ptr }
%union.nghttp2_data_source = type { ptr }
%struct.nghttp2_data_aux_data = type { %struct.nghttp2_data_provider_wrap, i8, i8, i8 }

@.str.1 = private unnamed_addr constant [114 x i8] c"generated/home/dtcxzyw/WorkSpace/Projects/compilers/llvm-opt-benchmark/bench/nghttp2/nghttp2/lib/nghttp2_submit.c\00", align 1
@.str.2 = private unnamed_addr constant [9 x i8] c"data_prd\00", align 1
@__PRETTY_FUNCTION__.nghttp2_submit_data = private unnamed_addr constant [92 x i8] c"int nghttp2_submit_data(nghttp2_session *, uint8_t, int32_t, const nghttp2_data_provider *)\00", align 1

; Function Attrs: nounwind uwtable
define hidden i32 @nghttp2_submit_data_shared(ptr noundef %0, i8 noundef zeroext %1, i32 noundef %2, ptr noundef %3) #0 {
  %5 = alloca i32, align 4
  %6 = alloca ptr, align 8
  %7 = alloca i8, align 1
  %8 = alloca i32, align 4
  %9 = alloca ptr, align 8
  %10 = alloca i32, align 4
  %11 = alloca ptr, align 8
  %12 = alloca ptr, align 8
  %13 = alloca ptr, align 8
  %14 = alloca i8, align 1
  %15 = alloca ptr, align 8
  %16 = alloca i32, align 4
  store ptr %0, ptr %6, align 8, !tbaa !3
  store i8 %1, ptr %7, align 1, !tbaa !13
  store i32 %2, ptr %8, align 4, !tbaa !8
  store ptr %3, ptr %9, align 8, !tbaa !14
  call void @llvm.lifetime.start.p0(i64 4, ptr %10) #7
  call void @llvm.lifetime.start.p0(i64 8, ptr %11) #7
  call void @llvm.lifetime.start.p0(i64 8, ptr %12) #7
  call void @llvm.lifetime.start.p0(i64 8, ptr %13) #7
  call void @llvm.lifetime.start.p0(i64 1, ptr %14) #7
  %17 = load i8, ptr %7, align 1, !tbaa !13
  %18 = zext i8 %17 to i32
  %19 = and i32 %18, 1
  %20 = trunc i32 %19 to i8
  store i8 %20, ptr %14, align 1, !tbaa !13
  call void @llvm.lifetime.start.p0(i64 8, ptr %15) #7
  %21 = load ptr, ptr %6, align 8, !tbaa !3
  %22 = getelementptr inbounds nuw %struct.nghttp2_session, ptr %21, i32 0, i32 10
  store ptr %22, ptr %15, align 8, !tbaa !10
  %23 = load i32, ptr %8, align 4, !tbaa !8
  %24 = icmp eq i32 %23, 0
  br i1 %24, label %25, label %26

25:                                               ; preds = %4
  store i32 -501, ptr %5, align 4
  store i32 1, ptr %16, align 4
  br label %59

26:                                               ; preds = %4
  %27 = load ptr, ptr %15, align 8, !tbaa !10
  %28 = call ptr @nghttp2_mem_malloc(ptr noundef %27, i64 noundef 160)
  store ptr %28, ptr %11, align 8, !tbaa !46
  %29 = load ptr, ptr %11, align 8, !tbaa !46
  %30 = icmp eq ptr %29, null
  br i1 %30, label %31, label %32

31:                                               ; preds = %26
  store i32 -901, ptr %5, align 4
  store i32 1, ptr %16, align 4
  br label %59

32:                                               ; preds = %26
  %33 = load ptr, ptr %11, align 8, !tbaa !46
  call void @nghttp2_outbound_item_init(ptr noundef %33)
  %34 = load ptr, ptr %11, align 8, !tbaa !46
  %35 = getelementptr inbounds nuw %struct.nghttp2_outbound_item, ptr %34, i32 0, i32 0
  store ptr %35, ptr %12, align 8, !tbaa !10
  %36 = load ptr, ptr %11, align 8, !tbaa !46
  %37 = getelementptr inbounds nuw %struct.nghttp2_outbound_item, ptr %36, i32 0, i32 2
  store ptr %37, ptr %13, align 8, !tbaa !10
  %38 = load ptr, ptr %13, align 8, !tbaa !10
  %39 = getelementptr inbounds nuw %struct.nghttp2_data_aux_data, ptr %38, i32 0, i32 0
  %40 = load ptr, ptr %9, align 8, !tbaa !14
  call void @llvm.memcpy.p0.p0.i64(ptr align 8 %39, ptr align 8 %40, i64 24, i1 false), !tbaa.struct !62
  %41 = load ptr, ptr %13, align 8, !tbaa !10
  %42 = getelementptr inbounds nuw %struct.nghttp2_data_aux_data, ptr %41, i32 0, i32 2
  store i8 0, ptr %42, align 1, !tbaa !63
  %43 = load i8, ptr %14, align 1, !tbaa !13
  %44 = load ptr, ptr %13, align 8, !tbaa !10
  %45 = getelementptr inbounds nuw %struct.nghttp2_data_aux_data, ptr %44, i32 0, i32 1
  store i8 %43, ptr %45, align 8, !tbaa !66
  %46 = load ptr, ptr %12, align 8, !tbaa !10
  %47 = load i32, ptr %8, align 4, !tbaa !8
  call void @nghttp2_frame_data_init(ptr noundef %46, i8 noundef zeroext 0, i32 noundef %47)
  %48 = load ptr, ptr %6, align 8, !tbaa !3
  %49 = load ptr, ptr %11, align 8, !tbaa !46
  %50 = call i32 @nghttp2_session_add_item(ptr noundef %48, ptr noundef %49)
  store i32 %50, ptr %10, align 4, !tbaa !8
  %51 = load i32, ptr %10, align 4, !tbaa !8
  %52 = icmp ne i32 %51, 0
  br i1 %52, label %53, label %58

53:                                               ; preds = %32
  %54 = load ptr, ptr %12, align 8, !tbaa !10
  call void @nghttp2_frame_data_free(ptr noundef %54)
  %55 = load ptr, ptr %15, align 8, !tbaa !10
  %56 = load ptr, ptr %11, align 8, !tbaa !46
  call void @nghttp2_mem_free(ptr noundef %55, ptr noundef %56)
  %57 = load i32, ptr %10, align 4, !tbaa !8
  store i32 %57, ptr %5, align 4
  store i32 1, ptr %16, align 4
  br label %59

58:                                               ; preds = %32
  store i32 0, ptr %5, align 4
  store i32 1, ptr %16, align 4
  br label %59

59:                                               ; preds = %58, %53, %31, %25
  call void @llvm.lifetime.end.p0(i64 8, ptr %15) #7
  call void @llvm.lifetime.end.p0(i64 1, ptr %14) #7
  call void @llvm.lifetime.end.p0(i64 8, ptr %13) #7
  call void @llvm.lifetime.end.p0(i64 8, ptr %12) #7
  call void @llvm.lifetime.end.p0(i64 8, ptr %11) #7
  call void @llvm.lifetime.end.p0(i64 4, ptr %10) #7
  %60 = load i32, ptr %5, align 4
  ret i32 %60
}

; Function Attrs: nounwind uwtable
define i32 @nghttp2_submit_data(ptr noundef %0, i8 noundef zeroext %1, i32 noundef %2, ptr noundef %3) #0 {
  %5 = alloca ptr, align 8
  %6 = alloca i8, align 1
  %7 = alloca i32, align 4
  %8 = alloca ptr, align 8
  %9 = alloca %struct.nghttp2_data_provider_wrap, align 8
  store ptr %0, ptr %5, align 8, !tbaa !3
  store i8 %1, ptr %6, align 1, !tbaa !13
  store i32 %2, ptr %7, align 4, !tbaa !8
  store ptr %3, ptr %8, align 8, !tbaa !10
  call void @llvm.lifetime.start.p0(i64 24, ptr %9) #7
  %10 = load ptr, ptr %8, align 8, !tbaa !10
  %11 = icmp ne ptr %10, null
  br i1 %11, label %12, label %13

12:                                               ; preds = %4
  br label %14

13:                                               ; preds = %4
  call void @__assert_fail(ptr noundef @.str.2, ptr noundef @.str.1, i32 noundef 790, ptr noundef @__PRETTY_FUNCTION__.nghttp2_submit_data) #8
  unreachable

14:                                               ; preds = %12
  %15 = load ptr, ptr %5, align 8, !tbaa !3
  %16 = load i8, ptr %6, align 1, !tbaa !13
  %17 = load i32, ptr %7, align 4, !tbaa !8
  %18 = load ptr, ptr %8, align 8, !tbaa !10
  %19 = call ptr @nghttp2_data_provider_wrap_v1(ptr noundef %9, ptr noundef %18)
  %20 = call i32 @nghttp2_submit_data_shared(ptr noundef %15, i8 noundef zeroext %16, i32 noundef %17, ptr noundef %19)
  call void @llvm.lifetime.end.p0(i64 24, ptr %9) #7
  ret i32 %20
}