; Function Attrs: nounwind uwtable
define i32 @nghttp2_submit_data(ptr noundef %0, i8 noundef zeroext %1, i32 noundef %2, ptr noundef %3) local_unnamed_addr #0 {
  %5 = alloca %struct.nghttp2_data_provider_wrap, align 8
  call void @llvm.lifetime.start.p0(i64 24, ptr nonnull %5) #8
  %.not = icmp eq ptr %3, null
  br i1 %.not, label %6, label %7

6:                                                ; preds = %4
  tail call void @__assert_fail(ptr noundef nonnull @.str.2, ptr noundef nonnull @.str.1, i32 noundef 790, ptr noundef nonnull @__PRETTY_FUNCTION__.nghttp2_submit_data) #9
  unreachable

7:                                                ; preds = %4
  %8 = call ptr @nghttp2_data_provider_wrap_v1(ptr noundef nonnull %5, ptr noundef nonnull %3) #8
  %9 = and i8 %1, 1
  %10 = getelementptr inbounds nuw i8, ptr %0, i64 2344
  %11 = icmp eq i32 %2, 0
  br i1 %11, label %nghttp2_submit_data_shared.exit, label %12

12:                                               ; preds = %7
  %13 = call ptr @nghttp2_mem_malloc(ptr noundef nonnull %10, i64 noundef 160) #8
  %14 = icmp eq ptr %13, null
  br i1 %14, label %nghttp2_submit_data_shared.exit, label %15

15:                                               ; preds = %12
  call void @nghttp2_outbound_item_init(ptr noundef nonnull %13) #8
  %16 = getelementptr inbounds nuw i8, ptr %13, i64 96
  call void @llvm.memcpy.p0.p0.i64(ptr noundef nonnull align 8 dereferenceable(24) %16, ptr noundef nonnull readonly align 8 dereferenceable(24) %8, i64 24, i1 false), !tbaa.struct !8
  %17 = getelementptr inbounds nuw i8, ptr %13, i64 121
  store i8 0, ptr %17, align 1, !tbaa !55
  %18 = getelementptr inbounds nuw i8, ptr %13, i64 120
  store i8 %9, ptr %18, align 8, !tbaa !58
  call void @nghttp2_frame_data_init(ptr noundef nonnull %13, i8 noundef zeroext 0, i32 noundef %2) #8
  %19 = call i32 @nghttp2_session_add_item(ptr noundef nonnull %0, ptr noundef nonnull %13) #8
  %.not.i = icmp eq i32 %19, 0
  br i1 %.not.i, label %nghttp2_submit_data_shared.exit, label %20

20:                                               ; preds = %15
  call void @nghttp2_frame_data_free(ptr noundef nonnull %13) #8
  call void @nghttp2_mem_free(ptr noundef nonnull %10, ptr noundef nonnull %13) #8
  br label %nghttp2_submit_data_shared.exit

nghttp2_submit_data_shared.exit:                  ; preds = %7, %12, %15, %20
  %.0.i = phi i32 [ %19, %20 ], [ -501, %7 ], [ -901, %12 ], [ 0, %15 ]
  call void @llvm.lifetime.end.p0(i64 24, ptr nonnull %5) #8
  ret i32 %.0.i
}